target datalayout = "e-m:e-p270:32:32-p271:32:32-p272:64:64-i64:64-i128:128-f80:128-n8:16:32:64-S128"
target triple = "x86_64-pc-linux-gnu"

%struct.Abc_Ntk_t_ = type { i32, i32, ptr, ptr, ptr, ptr, ptr, ptr, ptr, ptr, ptr, ptr, ptr, [11 x i32], i32, i32, i32, i32, ptr, i32, ptr, ptr, i32, i32, i32, double, i32, %struct.Vec_Int_t_, ptr, ptr, ptr, ptr, ptr, float, i32, ptr, ptr, ptr, ptr, ptr, ptr, ptr, ptr, ptr, ptr, ptr, ptr, ptr, ptr, ptr, ptr, ptr, ptr, ptr, ptr, ptr }
%struct.Vec_Int_t_ = type { i32, i32, ptr }
%struct.Abc_Obj_t_ = type { ptr, ptr, i32, i32, %struct.Vec_Int_t_, %struct.Vec_Int_t_, %union.anon, %union.anon.0 }
%union.anon = type { ptr }
%union.anon.0 = type { ptr }
%struct.Vec_Ptr_t_ = type { i32, i32, ptr }

@.str.7 = private unnamed_addr constant [2 x i8] c"\0A\00", align 1
@.str.111 = private unnamed_addr constant [61 x i8] c"Statistics about sharing of logic nodes among the CO pairs.\0A\00", align 1
@.str.112 = private unnamed_addr constant [23 x i8] c"(CO1,CO2)=NumShared : \00", align 1
@.str.113 = private unnamed_addr constant [12 x i8] c"(%d,%d)=%d \00", align 1

; Function Attrs: nounwind uwtable
define internal void @Vec_PtrFree(ptr noundef %0) #0 {
  %2 = alloca ptr, align 8
  store ptr %0, ptr %2, align 8
  %3 = load ptr, ptr %2, align 8
  %4 = getelementptr inbounds %struct.Vec_Ptr_t_, ptr %3, i32 0, i32 2
  %5 = load ptr, ptr %4, align 8
  %6 = icmp ne ptr %5, null
  br i1 %6, label %7, label %13

7:                                                ; preds = %1
  %8 = load ptr, ptr %2, align 8
  %9 = getelementptr inbounds %struct.Vec_Ptr_t_, ptr %8, i32 0, i32 2
  %10 = load ptr, ptr %9, align 8
  call void @free(ptr noundef %10) #11
  %11 = load ptr, ptr %2, align 8
  %12 = getelementptr inbounds %struct.Vec_Ptr_t_, ptr %11, i32 0, i32 2
  store ptr null, ptr %12, align 8
  br label %14

13:                                               ; preds = %1
  br label %14

14:                                               ; preds = %13, %7
  %15 = load ptr, ptr %2, align 8
  %16 = icmp ne ptr %15, null
  br i1 %16, label %17, label %19

17:                                               ; preds = %14
  %18 = load ptr, ptr %2, align 8
  call void @free(ptr noundef %18) #11
  store ptr null, ptr %2, align 8
  br label %20

19:                                               ; preds = %14
  br label %20

20:                                               ; preds = %19, %17
  ret void
}

; Function Attrs: nounwind uwtable
define internal ptr @Vec_PtrEntry(ptr noundef %0, i32 noundef %1) #0 {
  %3 = alloca ptr, align 8
  %4 = alloca i32, align 4
  store ptr %0, ptr %3, align 8
  store i32 %1, ptr %4, align 4
  %5 = load ptr, ptr %3, align 8
  %6 = getelementptr inbounds %struct.Vec_Ptr_t_, ptr %5, i32 0, i32 2
  %7 = load ptr, ptr %6, align 8
  %8 = load i32, ptr %4, align 4
  %9 = sext i32 %8 to i64
  %10 = getelementptr inbounds ptr, ptr %7, i64 %9
  %11 = load ptr, ptr %10, align 8
  ret ptr %11
}

; Function Attrs: nounwind uwtable
define internal i32 @Vec_PtrSize(ptr noundef %0) #0 {
  %2 = alloca ptr, align 8
  store ptr %0, ptr %2, align 8
  %3 = load ptr, ptr %2, align 8
  %4 = getelementptr inbounds %struct.Vec_Ptr_t_, ptr %3, i32 0, i32 1
  %5 = load i32, ptr %4, align 4
  ret i32 %5
}

; Function Attrs: nounwind uwtable
define internal ptr @Abc_NtkCo(ptr noundef %0, i32 noundef %1) #0 {
  %3 = alloca ptr, align 8
  %4 = alloca i32, align 4
  store ptr %0, ptr %3, align 8
  store i32 %1, ptr %4, align 4
  %5 = load ptr, ptr %3, align 8
  %6 = getelementptr inbounds %struct.Abc_Ntk_t_, ptr %5, i32 0, i32 9
  %7 = load ptr, ptr %6, align 8
  %8 = load i32, ptr %4, align 4
  %9 = call ptr @Vec_PtrEntry(ptr noundef %7, i32 noundef %8)
  ret ptr %9
}

; Function Attrs: nounwind uwtable
define internal i32 @Abc_NtkCoNum(ptr noundef %0) #0 {
  %2 = alloca ptr, align 8
  store ptr %0, ptr %2, align 8
  %3 = load ptr, ptr %2, align 8
  %4 = getelementptr inbounds %struct.Abc_Ntk_t_, ptr %3, i32 0, i32 9
  %5 = load ptr, ptr %4, align 8
  %6 = call i32 @Vec_PtrSize(ptr noundef %5)
  ret i32 %6
}

; Function Attrs: nounwind uwtable
define void @Abc_NtkPrintSharing(ptr noundef %0) #0 {
  %2 = alloca ptr, align 8
  %3 = alloca ptr, align 8
  %4 = alloca ptr, align 8
  %5 = alloca ptr, align 8
  %6 = alloca ptr, align 8
  %7 = alloca ptr, align 8
  %8 = alloca ptr, align 8
  %9 = alloca i32, align 4
  %10 = alloca i32, align 4
  %11 = alloca i32, align 4
  %12 = alloca i32, align 4
  %13 = alloca i32, align 4
  store ptr %0, ptr %2, align 8
  %14 = call i32 (ptr, ...) @printf(ptr noundef @.str.111)
  %15 = call i32 (ptr, ...) @printf(ptr noundef @.str.112)
  store i32 0, ptr %9, align 4
  br label %16

16:                                               ; preds = %124, %1
  %17 = load i32, ptr %9, align 4
  %18 = load ptr, ptr %2, align 8
  %19 = call i32 @Abc_NtkCoNum(ptr noundef %18)
  %20 = icmp slt i32 %17, %19
  br i1 %20, label %21, label %25

21:                                               ; preds = %16
  %22 = load ptr, ptr %2, align 8
  %23 = load i32, ptr %9, align 4
  %24 = call ptr @Abc_NtkCo(ptr noundef %22, i32 noundef %23)
  store ptr %24, ptr %5, align 8
  br label %25

25:                                               ; preds = %21, %16
  %26 = phi i1 [ false, %16 ], [ true, %21 ]
  br i1 %26, label %27, label %127

27:                                               ; preds = %25
  %28 = load ptr, ptr %2, align 8
  %29 = call ptr @Abc_NtkDfsNodes(ptr noundef %28, ptr noundef %5, i32 noundef 1)
  store ptr %29, ptr %3, align 8
  store i32 0, ptr %11, align 4
  br label %30

30:                                               ; preds = %47, %27
  %31 = load i32, ptr %11, align 4
  %32 = load ptr, ptr %3, align 8
  %33 = call i32 @Vec_PtrSize(ptr noundef %32)
  %34 = icmp slt i32 %31, %33
  br i1 %34, label %35, label %39

35:                                               ; preds = %30
  %36 = load ptr, ptr %3, align 8
  %37 = load i32, ptr %11, align 4
  %38 = call ptr @Vec_PtrEntry(ptr noundef %36, i32 noundef %37)
  store ptr %38, ptr %7, align 8
  br label %39

39:                                               ; preds = %35, %30
  %40 = phi i1 [ false, %30 ], [ true, %35 ]
  br i1 %40, label %41, label %50

41:                                               ; preds = %39
  %42 = load ptr, ptr %7, align 8
  %43 = getelementptr inbounds %struct.Abc_Obj_t_, ptr %42, i32 0, i32 3
  %44 = load i32, ptr %43, align 4
  %45 = and i32 %44, -17
  %46 = or i32 %45, 16
  store i32 %46, ptr %43, align 4
  br label %47

47:                                               ; preds = %41
  %48 = load i32, ptr %11, align 4
  %49 = add nsw i32 %48, 1
  store i32 %49, ptr %11, align 4
  br label %30, !llvm.loop !76

50:                                               ; preds = %39
  store i32 0, ptr %10, align 4
  br label %51

51:                                               ; preds = %98, %50
  %52 = load i32, ptr %10, align 4
  %53 = load ptr, ptr %2, align 8
  %54 = call i32 @Abc_NtkCoNum(ptr noundef %53)
  %55 = icmp slt i32 %52, %54
  br i1 %55, label %56, label %60

56:                                               ; preds = %51
  %57 = load ptr, ptr %2, align 8
  %58 = load i32, ptr %10, align 4
  %59 = call ptr @Abc_NtkCo(ptr noundef %57, i32 noundef %58)
  store ptr %59, ptr %6, align 8
  br label %60

60:                                               ; preds = %56, %51
  %61 = phi i1 [ false, %51 ], [ true, %56 ]
  br i1 %61, label %62, label %101

62:                                               ; preds = %60
  %63 = load i32, ptr %9, align 4
  %64 = load i32, ptr %10, align 4
  %65 = icmp sge i32 %63, %64
  br i1 %65, label %66, label %67

66:                                               ; preds = %62
  br label %98

67:                                               ; preds = %62
  %68 = load ptr, ptr %2, align 8
  %69 = call ptr @Abc_NtkDfsNodes(ptr noundef %68, ptr noundef %6, i32 noundef 1)
  store ptr %69, ptr %4, align 8
  store i32 0, ptr %13, align 4
  store i32 0, ptr %12, align 4
  br label %70

70:                                               ; preds = %89, %67
  %71 = load i32, ptr %12, align 4
  %72 = load ptr, ptr %4, align 8
  %73 = call i32 @Vec_PtrSize(ptr noundef %72)
  %74 = icmp slt i32 %71, %73
  br i1 %74, label %75, label %79

75:                                               ; preds = %70
  %76 = load ptr, ptr %4, align 8
  %77 = load i32, ptr %12, align 4
  %78 = call ptr @Vec_PtrEntry(ptr noundef %76, i32 noundef %77)
  store ptr %78, ptr %8, align 8
  br label %79

79:                                               ; preds = %75, %70
  %80 = phi i1 [ false, %70 ], [ true, %75 ]
  br i1 %80, label %81, label %92

81:                                               ; preds = %79
  %82 = load ptr, ptr %8, align 8
  %83 = getelementptr inbounds %struct.Abc_Obj_t_, ptr %82, i32 0, i32 3
  %84 = load i32, ptr %83, align 4
  %85 = lshr i32 %84, 4
  %86 = and i32 %85, 1
  %87 = load i32, ptr %13, align 4
  %88 = add nsw i32 %87, %86
  store i32 %88, ptr %13, align 4
  br label %89

89:                                               ; preds = %81
  %90 = load i32, ptr %12, align 4
  %91 = add nsw i32 %90, 1
  store i32 %91, ptr %12, align 4
  br label %70, !llvm.loop !77

92:                                               ; preds = %79
  %93 = load i32, ptr %9, align 4
  %94 = load i32, ptr %10, align 4
  %95 = load i32, ptr %13, align 4
  %96 = call i32 (ptr, ...) @printf(ptr noundef @.str.113, i32 noundef %93, i32 noundef %94, i32 noundef %95)
  %97 = load ptr, ptr %4, align 8
  call void @Vec_PtrFree(ptr noundef %97)
  br label %98

98:                                               ; preds = %92, %66
  %99 = load i32, ptr %10, align 4
  %100 = add nsw i32 %99, 1
  store i32 %100, ptr %10, align 4
  br label %51, !llvm.loop !78

101:                                              ; preds = %60
  store i32 0, ptr %11, align 4
  br label %102

102:                                              ; preds = %119, %101
  %103 = load i32, ptr %11, align 4
  %104 = load ptr, ptr %3, align 8
  %105 = call i32 @Vec_PtrSize(ptr noundef %104)
  %106 = icmp slt i32 %103, %105
  br i1 %106, label %107, label %111

107:                                              ; preds = %102
  %108 = load ptr, ptr %3, align 8
  %109 = load i32, ptr %11, align 4
  %110 = call ptr @Vec_PtrEntry(ptr noundef %108, i32 noundef %109)
  store ptr %110, ptr %7, align 8
  br label %111

111:                                              ; preds = %107, %102
  %112 = phi i1 [ false, %102 ], [ true, %107 ]
  br i1 %112, label %113, label %122

113:                                              ; preds = %111
  %114 = load ptr, ptr %7, align 8
  %115 = getelementptr inbounds %struct.Abc_Obj_t_, ptr %114, i32 0, i32 3
  %116 = load i32, ptr %115, align 4
  %117 = and i32 %116, -17
  %118 = or i32 %117, 0
  store i32 %118, ptr %115, align 4
  br label %119

119:                                              ; preds = %113
  %120 = load i32, ptr %11, align 4
  %121 = add nsw i32 %120, 1
  store i32 %121, ptr %11, align 4
  br label %102, !llvm.loop !79

122:                                              ; preds = %111
  %123 = load ptr, ptr %3, align 8
  call void @Vec_PtrFree(ptr noundef %123)
  br label %124

124:                                              ; preds = %122
  %125 = load i32, ptr %9, align 4
  %126 = add nsw i32 %125, 1
  store i32 %126, ptr %9, align 4
  br label %16, !llvm.loop !80

127:                                              ; preds = %25
  %128 = call i32 (ptr, ...) @printf(ptr noundef @.str.7)
  ret void
}