; Function Attrs: nounwind uwtable
define void @Abc_NtkPrintSharing(ptr noundef %0) local_unnamed_addr #0 {
  %2 = alloca ptr, align 8
  %3 = alloca ptr, align 8
  %puts = tail call i32 @puts(ptr nonnull dereferenceable(1) @str.3)
  %4 = tail call i32 (ptr, ...) @printf(ptr noundef nonnull dereferenceable(1) @.str.112)
  %5 = getelementptr i8, ptr %0, i64 64
  %.val5573 = load ptr, ptr %5, align 8
  %6 = getelementptr i8, ptr %.val5573, i64 4
  %.val55.val74 = load i32, ptr %6, align 4
  %7 = icmp sgt i32 %.val55.val74, 0
  br i1 %7, label %.lr.ph77, label %.critedge

.lr.ph77:                                         ; preds = %1, %Vec_PtrFree.exit59
  %indvars.iv88 = phi i64 [ %indvars.iv.next89, %Vec_PtrFree.exit59 ], [ 0, %1 ]
  %.val5576 = phi ptr [ %.val55, %Vec_PtrFree.exit59 ], [ %.val5573, %1 ]
  %8 = getelementptr i8, ptr %.val5576, i64 8
  %.val57.val = load ptr, ptr %8, align 8
  %9 = getelementptr inbounds nuw ptr, ptr %.val57.val, i64 %indvars.iv88
  %10 = load ptr, ptr %9, align 8
  store ptr %10, ptr %2, align 8
  %11 = call ptr @Abc_NtkDfsNodes(ptr noundef nonnull %0, ptr noundef nonnull %2, i32 noundef 1) #19
  %12 = getelementptr i8, ptr %11, i64 4
  %.val5060 = load i32, ptr %12, align 4
  %13 = icmp sgt i32 %.val5060, 0
  br i1 %13, label %.lr.ph, label %.critedge2.preheader

.lr.ph:                                           ; preds = %.lr.ph77
  %14 = getelementptr i8, ptr %11, i64 8
  br label %18

.critedge2.preheader:                             ; preds = %18, %.lr.ph77
  %.val7094 = phi i32 [ %.val5060, %.lr.ph77 ], [ %.val50, %18 ]
  %.val5465 = load ptr, ptr %5, align 8
  %15 = getelementptr i8, ptr %.val5465, i64 4
  %.val54.val66 = load i32, ptr %15, align 4
  %16 = icmp sgt i32 %.val54.val66, 0
  br i1 %16, label %.lr.ph69.preheader, label %.critedge4.preheader

.lr.ph69.preheader:                               ; preds = %.critedge2.preheader
  %17 = trunc nuw nsw i64 %indvars.iv88 to i32
  br label %.lr.ph69

18:                                               ; preds = %.lr.ph, %18
  %indvars.iv = phi i64 [ 0, %.lr.ph ], [ %indvars.iv.next, %18 ]
  %.val53 = load ptr, ptr %14, align 8
  %19 = getelementptr inbounds nuw ptr, ptr %.val53, i64 %indvars.iv
  %20 = load ptr, ptr %19, align 8
  %21 = getelementptr inbounds nuw i8, ptr %20, i64 20
  %22 = load i32, ptr %21, align 4
  %23 = or i32 %22, 16
  store i32 %23, ptr %21, align 4
  %indvars.iv.next = add nuw nsw i64 %indvars.iv, 1
  %.val50 = load i32, ptr %12, align 4
  %24 = sext i32 %.val50 to i64
  %25 = icmp slt i64 %indvars.iv.next, %24
  br i1 %25, label %18, label %.critedge2.preheader, !llvm.loop !79

.critedge4.preheader.loopexit:                    ; preds = %.critedge2
  %.val70.pre = load i32, ptr %12, align 4
  br label %.critedge4.preheader

.critedge4.preheader:                             ; preds = %.critedge4.preheader.loopexit, %.critedge2.preheader
  %.val70 = phi i32 [ %.val70.pre, %.critedge4.preheader.loopexit ], [ %.val7094, %.critedge2.preheader ]
  %26 = icmp sgt i32 %.val70, 0
  br i1 %26, label %.lr.ph72, label %.critedge8

.lr.ph72:                                         ; preds = %.critedge4.preheader
  %27 = getelementptr i8, ptr %11, i64 8
  br label %.critedge4

.lr.ph69:                                         ; preds = %.lr.ph69.preheader, %.critedge2
  %.val5491 = phi ptr [ %.val5465, %.lr.ph69.preheader ], [ %.val54, %.critedge2 ]
  %indvars.iv82 = phi i64 [ 0, %.lr.ph69.preheader ], [ %indvars.iv.next83, %.critedge2 ]
  %28 = getelementptr i8, ptr %.val5491, i64 8
  %.val56.val = load ptr, ptr %28, align 8
  %29 = getelementptr inbounds nuw ptr, ptr %.val56.val, i64 %indvars.iv82
  %30 = load ptr, ptr %29, align 8
  store ptr %30, ptr %3, align 8
  %.not = icmp samesign ult i64 %indvars.iv88, %indvars.iv82
  br i1 %.not, label %31, label %.critedge2

31:                                               ; preds = %.lr.ph69
  %32 = call ptr @Abc_NtkDfsNodes(ptr noundef nonnull %0, ptr noundef nonnull %3, i32 noundef 1) #19
  %33 = getelementptr i8, ptr %32, i64 4
  %.val49 = load i32, ptr %33, align 4
  %34 = icmp sgt i32 %.val49, 0
  br i1 %34, label %.lr.ph64, label %.critedge6

.lr.ph64:                                         ; preds = %31
  %35 = getelementptr i8, ptr %32, i64 8
  %.val52 = load ptr, ptr %35, align 8
  %wide.trip.count = zext nneg i32 %.val49 to i64
  br label %36

36:                                               ; preds = %.lr.ph64, %36
  %indvars.iv79 = phi i64 [ 0, %.lr.ph64 ], [ %indvars.iv.next80, %36 ]
  %.063 = phi i32 [ 0, %.lr.ph64 ], [ %43, %36 ]
  %37 = getelementptr inbounds nuw ptr, ptr %.val52, i64 %indvars.iv79
  %38 = load ptr, ptr %37, align 8
  %39 = getelementptr inbounds nuw i8, ptr %38, i64 20
  %40 = load i32, ptr %39, align 4
  %41 = lshr i32 %40, 4
  %42 = and i32 %41, 1
  %43 = add nuw nsw i32 %42, %.063
  %indvars.iv.next80 = add nuw nsw i64 %indvars.iv79, 1
  %exitcond.not = icmp eq i64 %indvars.iv.next80, %wide.trip.count
  br i1 %exitcond.not, label %.critedge6, label %36, !llvm.loop !80

.critedge6:                                       ; preds = %36, %31
  %.0.lcssa = phi i32 [ 0, %31 ], [ %43, %36 ]
  %44 = trunc nuw nsw i64 %indvars.iv82 to i32
  %45 = call i32 (ptr, ...) @printf(ptr noundef nonnull dereferenceable(1) @.str.113, i32 noundef %17, i32 noundef %44, i32 noundef %.0.lcssa)
  %46 = getelementptr inbounds nuw i8, ptr %32, i64 8
  %47 = load ptr, ptr %46, align 8
  %.not.i = icmp eq ptr %47, null
  br i1 %.not.i, label %Vec_PtrFree.exit, label %48

48:                                               ; preds = %.critedge6
  call void @free(ptr noundef nonnull %47) #19
  br label %Vec_PtrFree.exit

Vec_PtrFree.exit:                                 ; preds = %.critedge6, %48
  call void @free(ptr noundef nonnull %32) #19
  %.val54.pre = load ptr, ptr %5, align 8
  br label %.critedge2

.critedge2:                                       ; preds = %.lr.ph69, %Vec_PtrFree.exit
  %.val54 = phi ptr [ %.val5491, %.lr.ph69 ], [ %.val54.pre, %Vec_PtrFree.exit ]
  %indvars.iv.next83 = add nuw nsw i64 %indvars.iv82, 1
  %49 = getelementptr i8, ptr %.val54, i64 4
  %.val54.val = load i32, ptr %49, align 4
  %50 = sext i32 %.val54.val to i64
  %51 = icmp slt i64 %indvars.iv.next83, %50
  br i1 %51, label %.lr.ph69, label %.critedge4.preheader.loopexit, !llvm.loop !81

.critedge4:                                       ; preds = %.lr.ph72, %.critedge4
  %indvars.iv85 = phi i64 [ 0, %.lr.ph72 ], [ %indvars.iv.next86, %.critedge4 ]
  %.val51 = load ptr, ptr %27, align 8
  %52 = getelementptr inbounds nuw ptr, ptr %.val51, i64 %indvars.iv85
  %53 = load ptr, ptr %52, align 8
  %54 = getelementptr inbounds nuw i8, ptr %53, i64 20
  %55 = load i32, ptr %54, align 4
  %56 = and i32 %55, -17
  store i32 %56, ptr %54, align 4
  %indvars.iv.next86 = add nuw nsw i64 %indvars.iv85, 1
  %.val = load i32, ptr %12, align 4
  %57 = sext i32 %.val to i64
  %58 = icmp slt i64 %indvars.iv.next86, %57
  br i1 %58, label %.critedge4, label %.critedge8, !llvm.loop !82

.critedge8:                                       ; preds = %.critedge4, %.critedge4.preheader
  %59 = getelementptr inbounds nuw i8, ptr %11, i64 8
  %60 = load ptr, ptr %59, align 8
  %.not.i58 = icmp eq ptr %60, null
  br i1 %.not.i58, label %Vec_PtrFree.exit59, label %61

61:                                               ; preds = %.critedge8
  call void @free(ptr noundef nonnull %60) #19
  br label %Vec_PtrFree.exit59

Vec_PtrFree.exit59:                               ; preds = %.critedge8, %61
  call void @free(ptr noundef nonnull %11) #19
  %indvars.iv.next89 = add nuw nsw i64 %indvars.iv88, 1
  %.val55 = load ptr, ptr %5, align 8
  %62 = getelementptr i8, ptr %.val55, i64 4
  %.val55.val = load i32, ptr %62, align 4
  %63 = sext i32 %.val55.val to i64
  %64 = icmp slt i64 %indvars.iv.next89, %63
  br i1 %64, label %.lr.ph77, label %.critedge, !llvm.loop !83

.critedge:                                        ; preds = %Vec_PtrFree.exit59, %1
  %putchar = call i32 @putchar(i32 10)
  ret void
}